; Function Attrs: mustprogress nofree norecurse nosync nounwind willreturn memory(argmem: readwrite) uwtable
define internal noundef zeroext i1 @"_ZNSt17_Function_handlerIFSt10unique_ptrINSt13__future_base12_Result_baseENS2_8_DeleterEEvENS1_12_Task_setterIS0_INS1_7_ResultIvEES3_EZNS1_11_Task_stateIZN11OpenImageIO6v3_1_09TIFFInput17read_native_tilesEiiiiiiiiPvE3$_0SaIiEFviEE14_M_run_delayedEOiSt8weak_ptrINS1_13_State_baseV2EEEUlvE_vEEE10_M_managerERSt9_Any_dataRKSQ_St18_Manager_operation"(ptr noundef nonnull writeonly align 8 captures(none) dereferenceable(16) %0, ptr noundef nonnull align 8 dereferenceable(16) %1, i32 noundef %2) #30 align 2 personality ptr @__gxx_personality_v0 {
  switch i32 %2, label %"_ZNSt14_Function_base13_Base_managerINSt13__future_base12_Task_setterISt10unique_ptrINS1_7_ResultIvEENS1_12_Result_base8_DeleterEEZNS1_11_Task_stateIZN11OpenImageIO6v3_1_09TIFFInput17read_native_tilesEiiiiiiiiPvE3$_0SaIiEFviEE14_M_run_delayedEOiSt8weak_ptrINS1_13_State_baseV2EEEUlvE_vEEE10_M_managerERSt9_Any_dataRKSP_St18_Manager_operation.exit" [
    i32 0, label %4
    i32 1, label %5
    i32 2, label %6
  ]

4:                                                ; preds = %3
  store ptr @"_ZTINSt13__future_base12_Task_setterISt10unique_ptrINS_7_ResultIvEENS_12_Result_base8_DeleterEEZNS_11_Task_stateIZN11OpenImageIO6v3_1_09TIFFInput17read_native_tilesEiiiiiiiiPvE3$_0SaIiEFviEE14_M_run_delayedEOiSt8weak_ptrINS_13_State_baseV2EEEUlvE_vEE", ptr %0, align 8, !tbaa !934
  br label %"_ZNSt14_Function_base13_Base_managerINSt13__future_base12_Task_setterISt10unique_ptrINS1_7_ResultIvEENS1_12_Result_base8_DeleterEEZNS1_11_Task_stateIZN11OpenImageIO6v3_1_09TIFFInput17read_native_tilesEiiiiiiiiPvE3$_0SaIiEFviEE14_M_run_delayedEOiSt8weak_ptrINS1_13_State_baseV2EEEUlvE_vEEE10_M_managerERSt9_Any_dataRKSP_St18_Manager_operation.exit"

5:                                                ; preds = %3
  store ptr %1, ptr %0, align 8, !tbaa !1004
  br label %"_ZNSt14_Function_base13_Base_managerINSt13__future_base12_Task_setterISt10unique_ptrINS1_7_ResultIvEENS1_12_Result_base8_DeleterEEZNS1_11_Task_stateIZN11OpenImageIO6v3_1_09TIFFInput17read_native_tilesEiiiiiiiiPvE3$_0SaIiEFviEE14_M_run_delayedEOiSt8weak_ptrINS1_13_State_baseV2EEEUlvE_vEEE10_M_managerERSt9_Any_dataRKSP_St18_Manager_operation.exit"

6:                                                ; preds = %3
  tail call void @llvm.memcpy.p0.p0.i64(ptr noundef nonnull align 8 dereferenceable(16) %0, ptr noundef nonnull readonly align 8 dereferenceable(16) %1, i64 16, i1 false), !tbaa.struct !938
  br label %"_ZNSt14_Function_base13_Base_managerINSt13__future_base12_Task_setterISt10unique_ptrINS1_7_ResultIvEENS1_12_Result_base8_DeleterEEZNS1_11_Task_stateIZN11OpenImageIO6v3_1_09TIFFInput17read_native_tilesEiiiiiiiiPvE3$_0SaIiEFviEE14_M_run_delayedEOiSt8weak_ptrINS1_13_State_baseV2EEEUlvE_vEEE10_M_managerERSt9_Any_dataRKSP_St18_Manager_operation.exit"

"_ZNSt14_Function_base13_Base_managerINSt13__future_base12_Task_setterISt10unique_ptrINS1_7_ResultIvEENS1_12_Result_base8_DeleterEEZNS1_11_Task_stateIZN11OpenImageIO6v3_1_09TIFFInput17read_native_tilesEiiiiiiiiPvE3$_0SaIiEFviEE14_M_run_delayedEOiSt8weak_ptrINS1_13_State_baseV2EEEUlvE_vEEE10_M_managerERSt9_Any_dataRKSP_St18_Manager_operation.exit": ; preds = %3, %6, %5, %4
  ret i1 false
}